; Function Attrs: nounwind uwtable
define noalias nonnull ptr @l_Array_foldlMUnsafe_fold___at_Lean_Compiler_LCNF_JoinPointCommonArgs_reduce_goReduce___spec__1___lambda__1(i8 noundef zeroext %0, ptr noundef readnone captures(none) %1, ptr noundef readnone captures(none) %2, ptr noundef readnone captures(none) %3, ptr noundef readnone captures(none) %4, ptr noundef readnone captures(none) %5, ptr noundef readnone captures(none) %6, ptr noundef %7) local_unnamed_addr #1 {
  %9 = icmp eq i8 %0, 0
  tail call void @lean_inc_heartbeat() #5
  %10 = tail call noalias ptr @mi_malloc_small(i64 noundef 24) #5
  %11 = icmp eq ptr %10, null
  br i1 %9, label %12, label %14

12:                                               ; preds = %8
  br i1 %11, label %13, label %lean_alloc_ctor.exit

13:                                               ; preds = %12
  tail call void @lean_internal_panic_out_of_memory() #6
  unreachable

14:                                               ; preds = %8
  br i1 %11, label %15, label %lean_alloc_ctor.exit

15:                                               ; preds = %14
  tail call void @lean_internal_panic_out_of_memory() #6
  unreachable

lean_alloc_ctor.exit:                             ; preds = %14, %12
  %.sink = phi ptr [ inttoptr (i64 3 to ptr), %12 ], [ inttoptr (i64 1 to ptr), %14 ]
  %16 = getelementptr inbounds nuw i8, ptr %10, i64 4
  store i32 1, ptr %10, align 4, !tbaa !8
  store i32 131096, ptr %16, align 4
  %17 = getelementptr inbounds nuw i8, ptr %10, i64 8
  store ptr %.sink, ptr %17, align 8, !tbaa !4
  %18 = getelementptr inbounds nuw i8, ptr %10, i64 16
  store ptr %7, ptr %18, align 8, !tbaa !4
  ret ptr %10
}